; Function Attrs: mustprogress uwtable
define noundef zeroext i1 @_ZNK32pxrInternal_v0_24__pxrReserved__9GfFrustum10IntersectsERKNS_7GfVec3dE(ptr noundef nonnull align 8 dereferenceable(128) %0, ptr nocapture noundef nonnull readonly align 8 dereferenceable(24) %1) local_unnamed_addr #0 align 2 {
  tail call void @_ZNK32pxrInternal_v0_24__pxrReserved__9GfFrustum23_CalculateFrustumPlanesEv(ptr noundef nonnull align 8 dereferenceable(128) %0)
  %3 = getelementptr inbounds nuw i8, ptr %0, i64 120
  %4 = load atomic i64, ptr %3 seq_cst, align 8
  %5 = inttoptr i64 %4 to ptr
  %6 = load double, ptr %1, align 8
  %7 = getelementptr inbounds i8, ptr %1, i64 8
  %8 = load double, ptr %7, align 8
  %9 = getelementptr inbounds i8, ptr %1, i64 16
  %10 = load double, ptr %9, align 8
  br label %11

11:                                               ; preds = %11, %2
  %.09.idx10 = phi i64 [ 0, %2 ], [ %.09.add, %11 ]
  %.09.ptr = getelementptr inbounds i8, ptr %5, i64 %.09.idx10
  %.sroa.0.0.copyload = load double, ptr %.09.ptr, align 8
  %.sroa.2.0..09.sroa_idx = getelementptr inbounds i8, ptr %.09.ptr, i64 8
  %.sroa.2.0.copyload = load double, ptr %.sroa.2.0..09.sroa_idx, align 8
  %.sroa.3.0..09.sroa_idx = getelementptr inbounds i8, ptr %.09.ptr, i64 16
  %.sroa.3.0.copyload = load double, ptr %.sroa.3.0..09.sroa_idx, align 8
  %.sroa.4.0..09.sroa_idx = getelementptr inbounds i8, ptr %.09.ptr, i64 24
  %.sroa.4.0.copyload = load double, ptr %.sroa.4.0..09.sroa_idx, align 8
  %12 = fmul double %.sroa.2.0.copyload, %8
  %13 = tail call double @llvm.fmuladd.f64(double %6, double %.sroa.0.0.copyload, double %12)
  %14 = tail call noundef double @llvm.fmuladd.f64(double %10, double %.sroa.3.0.copyload, double %13)
  %15 = fsub double %14, %.sroa.4.0.copyload
  %16 = fcmp oge double %15, 0.000000e+00
  %.09.add = add nuw nsw i64 %.09.idx10, 32
  %.not = icmp ne i64 %.09.add, 192
  %or.cond.not = select i1 %16, i1 %.not, i1 false
  br i1 %or.cond.not, label %11, label %17

17:                                               ; preds = %11
  ret i1 %16
}